target datalayout = "e-m:e-p270:32:32-p271:32:32-p272:64:64-i64:64-i128:128-f80:128-n8:16:32:64-S128"
target triple = "x86_64-pc-linux-gnu"

%struct.OSSL_HPKE_KEM_INFO = type { i16, ptr, ptr, ptr, i64, i64, i64, i64, i8 }

@.str = private unnamed_addr constant [35 x i8] c"../openssl/crypto/hpke/hpke_util.c\00", align 1
@__func__.ossl_HPKE_KEM_INFO_find_id = private unnamed_addr constant [27 x i8] c"ossl_HPKE_KEM_INFO_find_id\00", align 1

; Function Attrs: nounwind uwtable
define ptr @ossl_HPKE_KEM_INFO_find_id(i16 noundef zeroext %0) #0 {
  %2 = alloca ptr, align 8
  %3 = alloca i16, align 2
  %4 = alloca i32, align 4
  %5 = alloca i32, align 4
  %6 = alloca i32, align 4
  store i16 %0, ptr %3, align 2, !tbaa !17
  call void @llvm.lifetime.start.p0(i64 4, ptr %4) #5
  call void @llvm.lifetime.start.p0(i64 4, ptr %5) #5
  store i32 5, ptr %5, align 4, !tbaa !8
  %7 = load i16, ptr %3, align 2, !tbaa !17
  %8 = zext i16 %7 to i32
  %9 = icmp eq i32 %8, 0
  br i1 %9, label %10, label %11

10:                                               ; preds = %1
  call void @ERR_new()
  call void @ERR_set_debug(ptr noundef @.str, i32 noundef 181, ptr noundef @__func__.ossl_HPKE_KEM_INFO_find_id)
  call void (i32, i32, ptr, ...) @ERR_set_error(i32 noundef 57, i32 noundef 176, ptr noundef null)
  store ptr null, ptr %2, align 8
  store i32 1, ptr %6, align 4
  br label %35

11:                                               ; preds = %1
  store i32 0, ptr %4, align 4, !tbaa !8
  br label %12

12:                                               ; preds = %31, %11
  %13 = load i32, ptr %4, align 4, !tbaa !8
  %14 = load i32, ptr %5, align 4, !tbaa !8
  %15 = icmp ne i32 %13, %14
  br i1 %15, label %16, label %34

16:                                               ; preds = %12
  %17 = load i32, ptr %4, align 4, !tbaa !8
  %18 = sext i32 %17 to i64
  %19 = getelementptr inbounds [5 x %struct.OSSL_HPKE_KEM_INFO], ptr @hpke_kem_tab, i64 0, i64 %18
  %20 = getelementptr inbounds nuw %struct.OSSL_HPKE_KEM_INFO, ptr %19, i32 0, i32 0
  %21 = load i16, ptr %20, align 8, !tbaa !18
  %22 = zext i16 %21 to i32
  %23 = load i16, ptr %3, align 2, !tbaa !17
  %24 = zext i16 %23 to i32
  %25 = icmp eq i32 %22, %24
  br i1 %25, label %26, label %30

26:                                               ; preds = %16
  %27 = load i32, ptr %4, align 4, !tbaa !8
  %28 = sext i32 %27 to i64
  %29 = getelementptr inbounds [5 x %struct.OSSL_HPKE_KEM_INFO], ptr @hpke_kem_tab, i64 0, i64 %28
  store ptr %29, ptr %2, align 8
  store i32 1, ptr %6, align 4
  br label %35

30:                                               ; preds = %16
  br label %31

31:                                               ; preds = %30
  %32 = load i32, ptr %4, align 4, !tbaa !8
  %33 = add nsw i32 %32, 1
  store i32 %33, ptr %4, align 4, !tbaa !8
  br label %12, !llvm.loop !19

34:                                               ; preds = %12
  call void @ERR_new()
  call void @ERR_set_debug(ptr noundef @.str, i32 noundef 188, ptr noundef @__func__.ossl_HPKE_KEM_INFO_find_id)
  call void (i32, i32, ptr, ...) @ERR_set_error(i32 noundef 57, i32 noundef 176, ptr noundef null)
  store ptr null, ptr %2, align 8
  store i32 1, ptr %6, align 4
  br label %35

35:                                               ; preds = %34, %26, %10
  call void @llvm.lifetime.end.p0(i64 4, ptr %5) #5
  call void @llvm.lifetime.end.p0(i64 4, ptr %4) #5
  %36 = load ptr, ptr %2, align 8
  ret ptr %36
}