; Function Attrs: nounwind uwtable
define noundef ptr @ossl_HPKE_KEM_INFO_find_id(i16 noundef zeroext %0) local_unnamed_addr #0 {
  %2 = icmp eq i16 %0, 0
  br i1 %2, label %.loopexit.sink.split, label %.preheader

3:                                                ; preds = %.preheader
  %indvars.iv.next = add nuw nsw i64 %indvars.iv, 1
  %.not = icmp eq i64 %indvars.iv.next, 5
  br i1 %.not, label %.loopexit.sink.split, label %.preheader, !llvm.loop !14

.preheader:                                       ; preds = %1, %3
  %indvars.iv = phi i64 [ %indvars.iv.next, %3 ], [ 0, %1 ]
  %4 = getelementptr inbounds nuw [5 x %struct.OSSL_HPKE_KEM_INFO], ptr @hpke_kem_tab, i64 0, i64 %indvars.iv
  %5 = load i16, ptr %4, align 8, !tbaa !15
  %6 = icmp eq i16 %5, %0
  br i1 %6, label %.loopexit, label %3

.loopexit.sink.split:                             ; preds = %3, %1
  %.sink = phi i32 [ 181, %1 ], [ 188, %3 ]
  tail call void @ERR_new() #5
  tail call void @ERR_set_debug(ptr noundef nonnull @.str, i32 noundef %.sink, ptr noundef nonnull @__func__.ossl_HPKE_KEM_INFO_find_id) #5
  tail call void (i32, i32, ptr, ...) @ERR_set_error(i32 noundef 57, i32 noundef 176, ptr noundef null) #5
  br label %.loopexit

.loopexit:                                        ; preds = %.preheader, %.loopexit.sink.split
  %.0 = phi ptr [ null, %.loopexit.sink.split ], [ %4, %.preheader ]
  ret ptr %.0
}